target datalayout = "e-m:e-p270:32:32-p271:32:32-p272:64:64-i64:64-i128:128-f80:128-n8:16:32:64-S128"
target triple = "x86_64-pc-linux-gnu"

%"class.std::__cxx11::basic_string" = type { %"struct.std::__cxx11::basic_string<char>::_Alloc_hider", i64, %union.anon }
%"struct.std::__cxx11::basic_string<char>::_Alloc_hider" = type { ptr }
%union.anon = type { i64, [8 x i8] }
%"class.std::allocator" = type { i8 }

@.str.32 = private unnamed_addr constant [3 x i8] c"0x\00", align 1
@.str.38 = private unnamed_addr constant [3 x i8] c"0b\00", align 1

; Function Attrs: mustprogress uwtable
define linkonce_odr dso_local void @_ZStplIcSt11char_traitsIcESaIcEENSt7__cxx1112basic_stringIT_T0_T1_EEPKS5_OS8_(ptr dead_on_unwind noalias writable sret(%"class.std::__cxx11::basic_string") align 8 %0, ptr noundef %1, ptr noundef nonnull align 8 dereferenceable(32) %2) #4 comdat {
  %4 = alloca ptr, align 8
  %5 = alloca ptr, align 8
  %6 = alloca ptr, align 8
  store ptr %0, ptr %4, align 8
  store ptr %1, ptr %5, align 8
  store ptr %2, ptr %6, align 8
  %7 = load ptr, ptr %6, align 8
  %8 = load ptr, ptr %5, align 8
  %9 = call noundef nonnull align 8 dereferenceable(32) ptr @_ZNSt7__cxx1112basic_stringIcSt11char_traitsIcESaIcEE6insertEmPKc(ptr noundef nonnull align 8 dereferenceable(32) %7, i64 noundef 0, ptr noundef %8)
  call void @_ZNSt7__cxx1112basic_stringIcSt11char_traitsIcESaIcEEC1EOS4_(ptr noundef nonnull align 8 dereferenceable(32) %0, ptr noundef nonnull align 8 dereferenceable(32) %9) #3
  ret void
}

; Function Attrs: mustprogress uwtable
define linkonce_odr dso_local void @_ZStplIcSt11char_traitsIcESaIcEENSt7__cxx1112basic_stringIT_T0_T1_EEOS8_S9_(ptr dead_on_unwind noalias writable sret(%"class.std::__cxx11::basic_string") align 8 %0, ptr noundef nonnull align 8 dereferenceable(32) %1, ptr noundef nonnull align 8 dereferenceable(32) %2) #4 comdat {
  %4 = alloca ptr, align 8
  %5 = alloca ptr, align 8
  %6 = alloca ptr, align 8
  %7 = alloca i8, align 1
  %8 = alloca i64, align 8
  store ptr %0, ptr %4, align 8
  store ptr %1, ptr %5, align 8
  store ptr %2, ptr %6, align 8
  store i8 0, ptr %7, align 1
  store i8 1, ptr %7, align 1
  %9 = load i8, ptr %7, align 1
  %10 = trunc i8 %9 to i1
  br i1 %10, label %11, label %31

11:                                               ; preds = %3
  %12 = load ptr, ptr %5, align 8
  %13 = call noundef i64 @_ZNKSt7__cxx1112basic_stringIcSt11char_traitsIcESaIcEE4sizeEv(ptr noundef nonnull align 8 dereferenceable(32) %12) #3
  %14 = load ptr, ptr %6, align 8
  %15 = call noundef i64 @_ZNKSt7__cxx1112basic_stringIcSt11char_traitsIcESaIcEE4sizeEv(ptr noundef nonnull align 8 dereferenceable(32) %14) #3
  %16 = add i64 %13, %15
  store i64 %16, ptr %8, align 8
  %17 = load i64, ptr %8, align 8
  %18 = load ptr, ptr %5, align 8
  %19 = call noundef i64 @_ZNKSt7__cxx1112basic_stringIcSt11char_traitsIcESaIcEE8capacityEv(ptr noundef nonnull align 8 dereferenceable(32) %18) #3
  %20 = icmp ugt i64 %17, %19
  br i1 %20, label %21, label %30

21:                                               ; preds = %11
  %22 = load i64, ptr %8, align 8
  %23 = load ptr, ptr %6, align 8
  %24 = call noundef i64 @_ZNKSt7__cxx1112basic_stringIcSt11char_traitsIcESaIcEE8capacityEv(ptr noundef nonnull align 8 dereferenceable(32) %23) #3
  %25 = icmp ule i64 %22, %24
  br i1 %25, label %26, label %30

26:                                               ; preds = %21
  %27 = load ptr, ptr %6, align 8
  %28 = load ptr, ptr %5, align 8
  %29 = call noundef nonnull align 8 dereferenceable(32) ptr @_ZNSt7__cxx1112basic_stringIcSt11char_traitsIcESaIcEE6insertEmRKS4_(ptr noundef nonnull align 8 dereferenceable(32) %27, i64 noundef 0, ptr noundef nonnull align 8 dereferenceable(32) %28)
  call void @_ZNSt7__cxx1112basic_stringIcSt11char_traitsIcESaIcEEC1EOS4_(ptr noundef nonnull align 8 dereferenceable(32) %0, ptr noundef nonnull align 8 dereferenceable(32) %29) #3
  br label %35

30:                                               ; preds = %21, %11
  br label %31

31:                                               ; preds = %30, %3
  %32 = load ptr, ptr %5, align 8
  %33 = load ptr, ptr %6, align 8
  %34 = call noundef nonnull align 8 dereferenceable(32) ptr @_ZNSt7__cxx1112basic_stringIcSt11char_traitsIcESaIcEE6appendERKS4_(ptr noundef nonnull align 8 dereferenceable(32) %32, ptr noundef nonnull align 8 dereferenceable(32) %33)
  call void @_ZNSt7__cxx1112basic_stringIcSt11char_traitsIcESaIcEEC1EOS4_(ptr noundef nonnull align 8 dereferenceable(32) %0, ptr noundef nonnull align 8 dereferenceable(32) %34) #3
  br label %35

35:                                               ; preds = %31, %26
  ret void
}

; Function Attrs: mustprogress uwtable
define internal void @_ZL28GenerateRandomInt128ConstantB5cxx11v(ptr dead_on_unwind noalias writable sret(%"class.std::__cxx11::basic_string") align 8 %0) #4 personality ptr @__gxx_personality_v0 {
  %2 = alloca ptr, align 8
  %3 = alloca i1, align 1
  %4 = alloca ptr, align 8
  %5 = alloca i32, align 4
  %6 = alloca %"class.std::__cxx11::basic_string", align 8
  %7 = alloca %"class.std::__cxx11::basic_string", align 8
  %8 = alloca %"class.std::allocator", align 1
  %9 = alloca %"class.std::__cxx11::basic_string", align 8
  %10 = alloca %"class.std::__cxx11::basic_string", align 8
  %11 = alloca %"class.std::__cxx11::basic_string", align 8
  %12 = alloca %"class.std::__cxx11::basic_string", align 8
  store ptr %0, ptr %2, align 8
  store i1 false, ptr %3, align 1
  call void @_ZNSt7__cxx1112basic_stringIcSt11char_traitsIcESaIcEEC1Ev(ptr noundef nonnull align 8 dereferenceable(32) %0) #3
  %13 = invoke noundef zeroext i1 @_ZN9CGOptions15binary_constantEv()
          to label %14 unwind label %24

14:                                               ; preds = %1
  br i1 %13, label %15, label %47

15:                                               ; preds = %14
  %16 = invoke noundef zeroext i1 @_Z12rnd_flipcoinjPK6FilterPKNSt7__cxx1112basic_stringIcSt11char_traitsIcESaIcEEE(i32 noundef 100, ptr noundef null, ptr noundef null)
          to label %17 unwind label %24

17:                                               ; preds = %15
  br i1 %16, label %18, label %47

18:                                               ; preds = %17
  call void @_ZNSaIcEC1Ev(ptr noundef nonnull align 1 dereferenceable(1) %8) #3
  invoke void @_ZNSt7__cxx1112basic_stringIcSt11char_traitsIcESaIcEEC1EPKcRKS3_(ptr noundef nonnull align 8 dereferenceable(32) %7, ptr noundef @.str.38, ptr noundef nonnull align 1 dereferenceable(1) %8)
          to label %19 unwind label %28

19:                                               ; preds = %18
  invoke void @_Z15RandomHexDigitsB5cxx11i(ptr dead_on_unwind writable sret(%"class.std::__cxx11::basic_string") align 8 %10, i32 noundef 16)
          to label %20 unwind label %32

20:                                               ; preds = %19
  invoke void @_Z11HexToBinaryNSt7__cxx1112basic_stringIcSt11char_traitsIcESaIcEEE(ptr dead_on_unwind writable sret(%"class.std::__cxx11::basic_string") align 8 %9, ptr noundef %10)
          to label %21 unwind label %36

21:                                               ; preds = %20
  invoke void @_ZStplIcSt11char_traitsIcESaIcEENSt7__cxx1112basic_stringIT_T0_T1_EEOS8_S9_(ptr dead_on_unwind writable sret(%"class.std::__cxx11::basic_string") align 8 %6, ptr noundef nonnull align 8 dereferenceable(32) %7, ptr noundef nonnull align 8 dereferenceable(32) %9)
          to label %22 unwind label %40

22:                                               ; preds = %21
  %23 = call noundef nonnull align 8 dereferenceable(32) ptr @_ZNSt7__cxx1112basic_stringIcSt11char_traitsIcESaIcEEaSEOS4_(ptr noundef nonnull align 8 dereferenceable(32) %0, ptr noundef nonnull align 8 dereferenceable(32) %6) #3
  call void @_ZNSt7__cxx1112basic_stringIcSt11char_traitsIcESaIcEED1Ev(ptr noundef nonnull align 8 dereferenceable(32) %6) #3
  call void @_ZNSt7__cxx1112basic_stringIcSt11char_traitsIcESaIcEED1Ev(ptr noundef nonnull align 8 dereferenceable(32) %9) #3
  call void @_ZNSt7__cxx1112basic_stringIcSt11char_traitsIcESaIcEED1Ev(ptr noundef nonnull align 8 dereferenceable(32) %10) #3
  call void @_ZNSt7__cxx1112basic_stringIcSt11char_traitsIcESaIcEED1Ev(ptr noundef nonnull align 8 dereferenceable(32) %7) #3
  call void @_ZNSaIcED1Ev(ptr noundef nonnull align 1 dereferenceable(1) %8) #3
  br label %55

24:                                               ; preds = %47, %15, %1
  %25 = landingpad { ptr, i32 }
          cleanup
  %26 = extractvalue { ptr, i32 } %25, 0
  store ptr %26, ptr %4, align 8
  %27 = extractvalue { ptr, i32 } %25, 1
  store i32 %27, ptr %5, align 4
  br label %59

28:                                               ; preds = %18
  %29 = landingpad { ptr, i32 }
          cleanup
  %30 = extractvalue { ptr, i32 } %29, 0
  store ptr %30, ptr %4, align 8
  %31 = extractvalue { ptr, i32 } %29, 1
  store i32 %31, ptr %5, align 4
  br label %46

32:                                               ; preds = %19
  %33 = landingpad { ptr, i32 }
          cleanup
  %34 = extractvalue { ptr, i32 } %33, 0
  store ptr %34, ptr %4, align 8
  %35 = extractvalue { ptr, i32 } %33, 1
  store i32 %35, ptr %5, align 4
  br label %45

36:                                               ; preds = %20
  %37 = landingpad { ptr, i32 }
          cleanup
  %38 = extractvalue { ptr, i32 } %37, 0
  store ptr %38, ptr %4, align 8
  %39 = extractvalue { ptr, i32 } %37, 1
  store i32 %39, ptr %5, align 4
  br label %44

40:                                               ; preds = %21
  %41 = landingpad { ptr, i32 }
          cleanup
  %42 = extractvalue { ptr, i32 } %41, 0
  store ptr %42, ptr %4, align 8
  %43 = extractvalue { ptr, i32 } %41, 1
  store i32 %43, ptr %5, align 4
  call void @_ZNSt7__cxx1112basic_stringIcSt11char_traitsIcESaIcEED1Ev(ptr noundef nonnull align 8 dereferenceable(32) %9) #3
  br label %44

44:                                               ; preds = %40, %36
  call void @_ZNSt7__cxx1112basic_stringIcSt11char_traitsIcESaIcEED1Ev(ptr noundef nonnull align 8 dereferenceable(32) %10) #3
  br label %45

45:                                               ; preds = %44, %32
  call void @_ZNSt7__cxx1112basic_stringIcSt11char_traitsIcESaIcEED1Ev(ptr noundef nonnull align 8 dereferenceable(32) %7) #3
  br label %46

46:                                               ; preds = %45, %28
  call void @_ZNSaIcED1Ev(ptr noundef nonnull align 1 dereferenceable(1) %8) #3
  br label %59

47:                                               ; preds = %17, %14
  invoke void @_Z15RandomHexDigitsB5cxx11i(ptr dead_on_unwind writable sret(%"class.std::__cxx11::basic_string") align 8 %12, i32 noundef 16)
          to label %48 unwind label %24

48:                                               ; preds = %47
  invoke void @_ZStplIcSt11char_traitsIcESaIcEENSt7__cxx1112basic_stringIT_T0_T1_EEPKS5_OS8_(ptr dead_on_unwind writable sret(%"class.std::__cxx11::basic_string") align 8 %11, ptr noundef @.str.32, ptr noundef nonnull align 8 dereferenceable(32) %12)
          to label %49 unwind label %51

49:                                               ; preds = %48
  %50 = call noundef nonnull align 8 dereferenceable(32) ptr @_ZNSt7__cxx1112basic_stringIcSt11char_traitsIcESaIcEEaSEOS4_(ptr noundef nonnull align 8 dereferenceable(32) %0, ptr noundef nonnull align 8 dereferenceable(32) %11) #3
  call void @_ZNSt7__cxx1112basic_stringIcSt11char_traitsIcESaIcEED1Ev(ptr noundef nonnull align 8 dereferenceable(32) %11) #3
  call void @_ZNSt7__cxx1112basic_stringIcSt11char_traitsIcESaIcEED1Ev(ptr noundef nonnull align 8 dereferenceable(32) %12) #3
  br label %55

51:                                               ; preds = %48
  %52 = landingpad { ptr, i32 }
          cleanup
  %53 = extractvalue { ptr, i32 } %52, 0
  store ptr %53, ptr %4, align 8
  %54 = extractvalue { ptr, i32 } %52, 1
  store i32 %54, ptr %5, align 4
  call void @_ZNSt7__cxx1112basic_stringIcSt11char_traitsIcESaIcEED1Ev(ptr noundef nonnull align 8 dereferenceable(32) %12) #3
  br label %59

55:                                               ; preds = %49, %22
  store i1 true, ptr %3, align 1
  %56 = load i1, ptr %3, align 1
  br i1 %56, label %58, label %57

57:                                               ; preds = %55
  call void @_ZNSt7__cxx1112basic_stringIcSt11char_traitsIcESaIcEED1Ev(ptr noundef nonnull align 8 dereferenceable(32) %0) #3
  br label %58

58:                                               ; preds = %57, %55
  ret void

59:                                               ; preds = %51, %46, %24
  call void @_ZNSt7__cxx1112basic_stringIcSt11char_traitsIcESaIcEED1Ev(ptr noundef nonnull align 8 dereferenceable(32) %0) #3
  br label %60

60:                                               ; preds = %59
  %61 = load ptr, ptr %4, align 8
  %62 = load i32, ptr %5, align 4
  %63 = insertvalue { ptr, i32 } poison, ptr %61, 0
  %64 = insertvalue { ptr, i32 } %63, i32 %62, 1
  resume { ptr, i32 } %64
}